target datalayout = "e-m:e-p270:32:32-p271:32:32-p272:64:64-i64:64-i128:128-f80:128-n8:16:32:64-S128"
target triple = "x86_64-pc-linux-gnu"

%struct.ASN1_ITEM_st = type { i8, i64, ptr, i64, ptr, i64, ptr }
%struct.ASN1_EXTERN_FUNCS_st = type { ptr, ptr, ptr, ptr, ptr, ptr, ptr, ptr, ptr }
%struct.ASN1_TEMPLATE_st = type { i64, i64, i64, ptr, ptr }
%struct.ASN1_PRIMITIVE_FUNCS_st = type { ptr, i64, ptr, ptr, ptr, ptr, ptr, ptr }

@.str = private unnamed_addr constant [34 x i8] c"../openssl/crypto/asn1/tasn_new.c\00", align 1
@__func__.asn1_template_new = private unnamed_addr constant [18 x i8] c"asn1_template_new\00", align 1

; Function Attrs: nounwind uwtable
define internal void @asn1_primitive_clear(ptr noundef %0, ptr noundef %1) #0 {
  %3 = alloca ptr, align 8
  %4 = alloca ptr, align 8
  %5 = alloca i32, align 4
  %6 = alloca ptr, align 8
  %7 = alloca i32, align 4
  store ptr %0, ptr %3, align 8, !tbaa !10
  store ptr %1, ptr %4, align 8, !tbaa !3
  call void @llvm.lifetime.start.p0(i64 4, ptr %5) #4
  %8 = load ptr, ptr %4, align 8, !tbaa !3
  %9 = icmp ne ptr %8, null
  br i1 %9, label %10, label %32

10:                                               ; preds = %2
  %11 = load ptr, ptr %4, align 8, !tbaa !3
  %12 = getelementptr inbounds nuw %struct.ASN1_ITEM_st, ptr %11, i32 0, i32 4
  %13 = load ptr, ptr %12, align 8, !tbaa !20
  %14 = icmp ne ptr %13, null
  br i1 %14, label %15, label %32

15:                                               ; preds = %10
  call void @llvm.lifetime.start.p0(i64 8, ptr %6) #4
  %16 = load ptr, ptr %4, align 8, !tbaa !3
  %17 = getelementptr inbounds nuw %struct.ASN1_ITEM_st, ptr %16, i32 0, i32 4
  %18 = load ptr, ptr %17, align 8, !tbaa !20
  store ptr %18, ptr %6, align 8, !tbaa !44
  %19 = load ptr, ptr %6, align 8, !tbaa !44
  %20 = getelementptr inbounds nuw %struct.ASN1_PRIMITIVE_FUNCS_st, ptr %19, i32 0, i32 4
  %21 = load ptr, ptr %20, align 8, !tbaa !46
  %22 = icmp ne ptr %21, null
  br i1 %22, label %23, label %29

23:                                               ; preds = %15
  %24 = load ptr, ptr %6, align 8, !tbaa !44
  %25 = getelementptr inbounds nuw %struct.ASN1_PRIMITIVE_FUNCS_st, ptr %24, i32 0, i32 4
  %26 = load ptr, ptr %25, align 8, !tbaa !46
  %27 = load ptr, ptr %3, align 8, !tbaa !10
  %28 = load ptr, ptr %4, align 8, !tbaa !3
  call void %26(ptr noundef %27, ptr noundef %28)
  br label %31

29:                                               ; preds = %15
  %30 = load ptr, ptr %3, align 8, !tbaa !10
  store ptr null, ptr %30, align 8, !tbaa !8
  br label %31

31:                                               ; preds = %29, %23
  store i32 1, ptr %7, align 4
  call void @llvm.lifetime.end.p0(i64 8, ptr %6) #4
  br label %59

32:                                               ; preds = %10, %2
  %33 = load ptr, ptr %4, align 8, !tbaa !3
  %34 = icmp ne ptr %33, null
  br i1 %34, label %35, label %41

35:                                               ; preds = %32
  %36 = load ptr, ptr %4, align 8, !tbaa !3
  %37 = getelementptr inbounds nuw %struct.ASN1_ITEM_st, ptr %36, i32 0, i32 0
  %38 = load i8, ptr %37, align 8, !tbaa !28
  %39 = sext i8 %38 to i32
  %40 = icmp eq i32 %39, 5
  br i1 %40, label %41, label %42

41:                                               ; preds = %35, %32
  store i32 -1, ptr %5, align 4, !tbaa !16
  br label %47

42:                                               ; preds = %35
  %43 = load ptr, ptr %4, align 8, !tbaa !3
  %44 = getelementptr inbounds nuw %struct.ASN1_ITEM_st, ptr %43, i32 0, i32 1
  %45 = load i64, ptr %44, align 8, !tbaa !49
  %46 = trunc i64 %45 to i32
  store i32 %46, ptr %5, align 4, !tbaa !16
  br label %47

47:                                               ; preds = %42, %41
  %48 = load i32, ptr %5, align 4, !tbaa !16
  %49 = icmp eq i32 %48, 1
  br i1 %49, label %50, label %56

50:                                               ; preds = %47
  %51 = load ptr, ptr %4, align 8, !tbaa !3
  %52 = getelementptr inbounds nuw %struct.ASN1_ITEM_st, ptr %51, i32 0, i32 5
  %53 = load i64, ptr %52, align 8, !tbaa !35
  %54 = trunc i64 %53 to i32
  %55 = load ptr, ptr %3, align 8, !tbaa !10
  store i32 %54, ptr %55, align 4, !tbaa !16
  br label %58

56:                                               ; preds = %47
  %57 = load ptr, ptr %3, align 8, !tbaa !10
  store ptr null, ptr %57, align 8, !tbaa !8
  br label %58

58:                                               ; preds = %56, %50
  store i32 0, ptr %7, align 4
  br label %59

59:                                               ; preds = %58, %31
  call void @llvm.lifetime.end.p0(i64 4, ptr %5) #4
  %60 = load i32, ptr %7, align 4
  switch i32 %60, label %62 [
    i32 0, label %61
    i32 1, label %61
  ]

61:                                               ; preds = %59, %59
  ret void

62:                                               ; preds = %59
  unreachable
}

; Function Attrs: nounwind uwtable
define internal void @asn1_item_clear(ptr noundef %0, ptr noundef %1) #0 {
  %3 = alloca ptr, align 8
  %4 = alloca ptr, align 8
  %5 = alloca ptr, align 8
  store ptr %0, ptr %3, align 8, !tbaa !10
  store ptr %1, ptr %4, align 8, !tbaa !3
  call void @llvm.lifetime.start.p0(i64 8, ptr %5) #4
  %6 = load ptr, ptr %4, align 8, !tbaa !3
  %7 = getelementptr inbounds nuw %struct.ASN1_ITEM_st, ptr %6, i32 0, i32 0
  %8 = load i8, ptr %7, align 8, !tbaa !28
  %9 = sext i8 %8 to i32
  switch i32 %9, label %49 [
    i32 4, label %10
    i32 0, label %30
    i32 5, label %44
    i32 2, label %47
    i32 1, label %47
    i32 6, label %47
  ]

10:                                               ; preds = %2
  %11 = load ptr, ptr %4, align 8, !tbaa !3
  %12 = getelementptr inbounds nuw %struct.ASN1_ITEM_st, ptr %11, i32 0, i32 4
  %13 = load ptr, ptr %12, align 8, !tbaa !20
  store ptr %13, ptr %5, align 8, !tbaa !29
  %14 = load ptr, ptr %5, align 8, !tbaa !29
  %15 = icmp ne ptr %14, null
  br i1 %15, label %16, label %27

16:                                               ; preds = %10
  %17 = load ptr, ptr %5, align 8, !tbaa !29
  %18 = getelementptr inbounds nuw %struct.ASN1_EXTERN_FUNCS_st, ptr %17, i32 0, i32 3
  %19 = load ptr, ptr %18, align 8, !tbaa !60
  %20 = icmp ne ptr %19, null
  br i1 %20, label %21, label %27

21:                                               ; preds = %16
  %22 = load ptr, ptr %5, align 8, !tbaa !29
  %23 = getelementptr inbounds nuw %struct.ASN1_EXTERN_FUNCS_st, ptr %22, i32 0, i32 3
  %24 = load ptr, ptr %23, align 8, !tbaa !60
  %25 = load ptr, ptr %3, align 8, !tbaa !10
  %26 = load ptr, ptr %4, align 8, !tbaa !3
  call void %24(ptr noundef %25, ptr noundef %26)
  br label %29

27:                                               ; preds = %16, %10
  %28 = load ptr, ptr %3, align 8, !tbaa !10
  store ptr null, ptr %28, align 8, !tbaa !8
  br label %29

29:                                               ; preds = %27, %21
  br label %49

30:                                               ; preds = %2
  %31 = load ptr, ptr %4, align 8, !tbaa !3
  %32 = getelementptr inbounds nuw %struct.ASN1_ITEM_st, ptr %31, i32 0, i32 2
  %33 = load ptr, ptr %32, align 8, !tbaa !34
  %34 = icmp ne ptr %33, null
  br i1 %34, label %35, label %40

35:                                               ; preds = %30
  %36 = load ptr, ptr %3, align 8, !tbaa !10
  %37 = load ptr, ptr %4, align 8, !tbaa !3
  %38 = getelementptr inbounds nuw %struct.ASN1_ITEM_st, ptr %37, i32 0, i32 2
  %39 = load ptr, ptr %38, align 8, !tbaa !34
  call void @asn1_template_clear(ptr noundef %36, ptr noundef %39)
  br label %43

40:                                               ; preds = %30
  %41 = load ptr, ptr %3, align 8, !tbaa !10
  %42 = load ptr, ptr %4, align 8, !tbaa !3
  call void @asn1_primitive_clear(ptr noundef %41, ptr noundef %42)
  br label %43

43:                                               ; preds = %40, %35
  br label %49

44:                                               ; preds = %2
  %45 = load ptr, ptr %3, align 8, !tbaa !10
  %46 = load ptr, ptr %4, align 8, !tbaa !3
  call void @asn1_primitive_clear(ptr noundef %45, ptr noundef %46)
  br label %49

47:                                               ; preds = %2, %2, %2
  %48 = load ptr, ptr %3, align 8, !tbaa !10
  store ptr null, ptr %48, align 8, !tbaa !8
  br label %49

49:                                               ; preds = %2, %47, %44, %43, %29
  call void @llvm.lifetime.end.p0(i64 8, ptr %5) #4
  ret void
}

; Function Attrs: nounwind uwtable
define internal void @asn1_template_clear(ptr noundef %0, ptr noundef %1) #0 {
  %3 = alloca ptr, align 8
  %4 = alloca ptr, align 8
  store ptr %0, ptr %3, align 8, !tbaa !10
  store ptr %1, ptr %4, align 8, !tbaa !18
  %5 = load ptr, ptr %4, align 8, !tbaa !18
  %6 = getelementptr inbounds nuw %struct.ASN1_TEMPLATE_st, ptr %5, i32 0, i32 0
  %7 = load i64, ptr %6, align 8, !tbaa !41
  %8 = and i64 %7, 774
  %9 = icmp ne i64 %8, 0
  br i1 %9, label %10, label %12

10:                                               ; preds = %2
  %11 = load ptr, ptr %3, align 8, !tbaa !10
  store ptr null, ptr %11, align 8, !tbaa !8
  br label %18

12:                                               ; preds = %2
  %13 = load ptr, ptr %3, align 8, !tbaa !10
  %14 = load ptr, ptr %4, align 8, !tbaa !18
  %15 = getelementptr inbounds nuw %struct.ASN1_TEMPLATE_st, ptr %14, i32 0, i32 4
  %16 = load ptr, ptr %15, align 8, !tbaa !39
  %17 = call ptr %16()
  call void @asn1_item_clear(ptr noundef %13, ptr noundef %17)
  br label %18

18:                                               ; preds = %12, %10
  ret void
}

; Function Attrs: nounwind uwtable
define internal i32 @asn1_template_new(ptr noundef %0, ptr noundef %1, ptr noundef %2, ptr noundef %3) #0 {
  %5 = alloca i32, align 4
  %6 = alloca ptr, align 8
  %7 = alloca ptr, align 8
  %8 = alloca ptr, align 8
  %9 = alloca ptr, align 8
  %10 = alloca ptr, align 8
  %11 = alloca i32, align 4
  %12 = alloca ptr, align 8
  %13 = alloca i32, align 4
  %14 = alloca i32, align 4
  %15 = alloca ptr, align 8
  store ptr %0, ptr %6, align 8, !tbaa !10
  store ptr %1, ptr %7, align 8, !tbaa !18
  store ptr %2, ptr %8, align 8, !tbaa !12
  store ptr %3, ptr %9, align 8, !tbaa !14
  call void @llvm.lifetime.start.p0(i64 8, ptr %10) #4
  %16 = load ptr, ptr %7, align 8, !tbaa !18
  %17 = getelementptr inbounds nuw %struct.ASN1_TEMPLATE_st, ptr %16, i32 0, i32 4
  %18 = load ptr, ptr %17, align 8, !tbaa !39
  %19 = call ptr %18()
  store ptr %19, ptr %10, align 8, !tbaa !3
  call void @llvm.lifetime.start.p0(i64 4, ptr %11) #4
  %20 = load ptr, ptr %7, align 8, !tbaa !18
  %21 = getelementptr inbounds nuw %struct.ASN1_TEMPLATE_st, ptr %20, i32 0, i32 0
  %22 = load i64, ptr %21, align 8, !tbaa !41
  %23 = and i64 %22, 4096
  %24 = trunc i64 %23 to i32
  store i32 %24, ptr %11, align 4, !tbaa !16
  call void @llvm.lifetime.start.p0(i64 8, ptr %12) #4
  call void @llvm.lifetime.start.p0(i64 4, ptr %13) #4
  %25 = load i32, ptr %11, align 4, !tbaa !16
  %26 = icmp ne i32 %25, 0
  br i1 %26, label %27, label %29

27:                                               ; preds = %4
  %28 = load ptr, ptr %6, align 8, !tbaa !10
  store ptr %28, ptr %12, align 8, !tbaa !8
  store ptr %12, ptr %6, align 8, !tbaa !10
  br label %29

29:                                               ; preds = %27, %4
  %30 = load ptr, ptr %7, align 8, !tbaa !18
  %31 = getelementptr inbounds nuw %struct.ASN1_TEMPLATE_st, ptr %30, i32 0, i32 0
  %32 = load i64, ptr %31, align 8, !tbaa !41
  %33 = and i64 %32, 1
  %34 = icmp ne i64 %33, 0
  br i1 %34, label %35, label %38

35:                                               ; preds = %29
  %36 = load ptr, ptr %6, align 8, !tbaa !10
  %37 = load ptr, ptr %7, align 8, !tbaa !18
  call void @asn1_template_clear(ptr noundef %36, ptr noundef %37)
  store i32 1, ptr %5, align 4
  store i32 1, ptr %14, align 4
  br label %71

38:                                               ; preds = %29
  %39 = load ptr, ptr %7, align 8, !tbaa !18
  %40 = getelementptr inbounds nuw %struct.ASN1_TEMPLATE_st, ptr %39, i32 0, i32 0
  %41 = load i64, ptr %40, align 8, !tbaa !41
  %42 = and i64 %41, 768
  %43 = icmp ne i64 %42, 0
  br i1 %43, label %44, label %46

44:                                               ; preds = %38
  %45 = load ptr, ptr %6, align 8, !tbaa !10
  store ptr null, ptr %45, align 8, !tbaa !8
  store i32 1, ptr %5, align 4
  store i32 1, ptr %14, align 4
  br label %71

46:                                               ; preds = %38
  %47 = load ptr, ptr %7, align 8, !tbaa !18
  %48 = getelementptr inbounds nuw %struct.ASN1_TEMPLATE_st, ptr %47, i32 0, i32 0
  %49 = load i64, ptr %48, align 8, !tbaa !41
  %50 = and i64 %49, 6
  %51 = icmp ne i64 %50, 0
  br i1 %51, label %52, label %62

52:                                               ; preds = %46
  call void @llvm.lifetime.start.p0(i64 8, ptr %15) #4
  %53 = call ptr @OPENSSL_sk_new_null()
  store ptr %53, ptr %15, align 8, !tbaa !42
  %54 = load ptr, ptr %15, align 8, !tbaa !42
  %55 = icmp ne ptr %54, null
  br i1 %55, label %57, label %56

56:                                               ; preds = %52
  call void @ERR_new()
  call void @ERR_set_debug(ptr noundef @.str, i32 noundef 233, ptr noundef @__func__.asn1_template_new)
  call void (i32, i32, ptr, ...) @ERR_set_error(i32 noundef 13, i32 noundef 524303, ptr noundef null)
  store i32 0, ptr %13, align 4, !tbaa !16
  store i32 2, ptr %14, align 4
  br label %60

57:                                               ; preds = %52
  %58 = load ptr, ptr %15, align 8, !tbaa !42
  %59 = load ptr, ptr %6, align 8, !tbaa !10
  store ptr %58, ptr %59, align 8, !tbaa !8
  store i32 1, ptr %13, align 4, !tbaa !16
  store i32 2, ptr %14, align 4
  br label %60

60:                                               ; preds = %57, %56
  call void @llvm.lifetime.end.p0(i64 8, ptr %15) #4
  %61 = load i32, ptr %14, align 4
  switch i32 %61, label %71 [
    i32 2, label %69
  ]

62:                                               ; preds = %46
  %63 = load ptr, ptr %6, align 8, !tbaa !10
  %64 = load ptr, ptr %10, align 8, !tbaa !3
  %65 = load i32, ptr %11, align 4, !tbaa !16
  %66 = load ptr, ptr %8, align 8, !tbaa !12
  %67 = load ptr, ptr %9, align 8, !tbaa !14
  %68 = call i32 @asn1_item_embed_new(ptr noundef %63, ptr noundef %64, i32 noundef %65, ptr noundef %66, ptr noundef %67)
  store i32 %68, ptr %13, align 4, !tbaa !16
  br label %69

69:                                               ; preds = %62, %60
  %70 = load i32, ptr %13, align 4, !tbaa !16
  store i32 %70, ptr %5, align 4
  store i32 1, ptr %14, align 4
  br label %71

71:                                               ; preds = %69, %60, %44, %35
  call void @llvm.lifetime.end.p0(i64 4, ptr %13) #4
  call void @llvm.lifetime.end.p0(i64 8, ptr %12) #4
  call void @llvm.lifetime.end.p0(i64 4, ptr %11) #4
  call void @llvm.lifetime.end.p0(i64 8, ptr %10) #4
  %72 = load i32, ptr %5, align 4
  ret i32 %72
}