; Function Attrs: nounwind uwtable
define internal fastcc range(i32 0, 2) i32 @asn1_template_new(ptr noundef %0, ptr noundef readonly captures(none) %1, ptr noundef %2, ptr noundef %3) unnamed_addr #0 {
  %5 = alloca ptr, align 8
  %6 = getelementptr inbounds nuw i8, ptr %1, i64 32
  %7 = load ptr, ptr %6, align 8, !tbaa !25
  %8 = tail call ptr %7() #4
  %9 = load i64, ptr %1, align 8, !tbaa !27
  %10 = trunc i64 %9 to i32
  %11 = and i32 %10, 4096
  call void @llvm.lifetime.start.p0(i64 8, ptr nonnull %5) #4
  %.not = icmp eq i32 %11, 0
  br i1 %.not, label %13, label %12

12:                                               ; preds = %4
  store ptr %0, ptr %5, align 8, !tbaa !3
  br label %13

13:                                               ; preds = %12, %4
  %.022 = phi ptr [ %5, %12 ], [ %0, %4 ]
  %14 = and i64 %9, 1
  %.not24 = icmp eq i64 %14, 0
  br i1 %.not24, label %59, label %tailrecurse.i

tailrecurse.i:                                    ; preds = %13, %31
  %.tr12.i = phi ptr [ %33, %31 ], [ %1, %13 ]
  %15 = load i64, ptr %.tr12.i, align 8, !tbaa !27
  %16 = and i64 %15, 774
  %.not.i = icmp eq i64 %16, 0
  br i1 %.not.i, label %18, label %17

17:                                               ; preds = %tailrecurse.i
  store ptr null, ptr %.022, align 8, !tbaa !3
  br label %asn1_template_clear.exit

18:                                               ; preds = %tailrecurse.i
  %19 = getelementptr inbounds nuw i8, ptr %.tr12.i, i64 32
  %20 = load ptr, ptr %19, align 8, !tbaa !25
  %21 = tail call ptr %20() #4
  %22 = load i8, ptr %21, align 8, !tbaa !16
  switch i8 %22, label %asn1_template_clear.exit [
    i8 4, label %23
    i8 0, label %31
    i8 5, label %50
    i8 2, label %58
    i8 1, label %58
    i8 6, label %58
  ]

23:                                               ; preds = %18
  %24 = getelementptr inbounds nuw i8, ptr %21, i64 32
  %25 = load ptr, ptr %24, align 8, !tbaa !8
  %.not18.i.i = icmp eq ptr %25, null
  br i1 %.not18.i.i, label %30, label %26

26:                                               ; preds = %23
  %27 = getelementptr inbounds nuw i8, ptr %25, i64 24
  %28 = load ptr, ptr %27, align 8, !tbaa !28
  %.not19.i.i = icmp eq ptr %28, null
  br i1 %.not19.i.i, label %30, label %29

29:                                               ; preds = %26
  call void %28(ptr noundef %.022, ptr noundef nonnull %21) #4
  br label %asn1_template_clear.exit

30:                                               ; preds = %26, %23
  store ptr null, ptr %.022, align 8, !tbaa !3
  br label %asn1_template_clear.exit

31:                                               ; preds = %18
  %32 = getelementptr inbounds nuw i8, ptr %21, i64 16
  %33 = load ptr, ptr %32, align 8, !tbaa !20
  %.not.i.i = icmp eq ptr %33, null
  br i1 %.not.i.i, label %34, label %tailrecurse.i

34:                                               ; preds = %31
  %35 = getelementptr inbounds nuw i8, ptr %21, i64 32
  %36 = load ptr, ptr %35, align 8, !tbaa !8
  %.not17.i7.i = icmp eq ptr %36, null
  br i1 %.not17.i7.i, label %.critedge.i9.i, label %37

37:                                               ; preds = %34
  %38 = getelementptr inbounds nuw i8, ptr %36, i64 32
  %39 = load ptr, ptr %38, align 8, !tbaa !29
  %.not18.i8.i = icmp eq ptr %39, null
  br i1 %.not18.i8.i, label %41, label %40

40:                                               ; preds = %37
  call void %39(ptr noundef %.022, ptr noundef nonnull %21) #4
  br label %asn1_template_clear.exit

41:                                               ; preds = %37
  store ptr null, ptr %.022, align 8, !tbaa !3
  br label %asn1_template_clear.exit

.critedge.i9.i:                                   ; preds = %34
  %42 = getelementptr inbounds nuw i8, ptr %21, i64 8
  %43 = load i64, ptr %42, align 8, !tbaa !31
  %44 = and i64 %43, 4294967295
  %45 = icmp eq i64 %44, 1
  br i1 %45, label %46, label %.critedge19.i10.i

46:                                               ; preds = %.critedge.i9.i
  %47 = getelementptr inbounds nuw i8, ptr %21, i64 40
  %48 = load i64, ptr %47, align 8, !tbaa !21
  %49 = trunc i64 %48 to i32
  store i32 %49, ptr %.022, align 4, !tbaa !32
  br label %asn1_template_clear.exit

.critedge19.i10.i:                                ; preds = %.critedge.i9.i
  store ptr null, ptr %.022, align 8, !tbaa !3
  br label %asn1_template_clear.exit

50:                                               ; preds = %18
  %51 = getelementptr inbounds nuw i8, ptr %21, i64 32
  %52 = load ptr, ptr %51, align 8, !tbaa !8
  %.not17.i.i = icmp eq ptr %52, null
  br i1 %.not17.i.i, label %.critedge19.i.i, label %53

53:                                               ; preds = %50
  %54 = getelementptr inbounds nuw i8, ptr %52, i64 32
  %55 = load ptr, ptr %54, align 8, !tbaa !29
  %.not18.i5.i = icmp eq ptr %55, null
  br i1 %.not18.i5.i, label %57, label %56

56:                                               ; preds = %53
  call void %55(ptr noundef %.022, ptr noundef nonnull %21) #4
  br label %asn1_template_clear.exit

57:                                               ; preds = %53
  store ptr null, ptr %.022, align 8, !tbaa !3
  br label %asn1_template_clear.exit

.critedge19.i.i:                                  ; preds = %50
  store ptr null, ptr %.022, align 8, !tbaa !3
  br label %asn1_template_clear.exit

58:                                               ; preds = %18, %18, %18
  store ptr null, ptr %.022, align 8, !tbaa !3
  br label %asn1_template_clear.exit

59:                                               ; preds = %13
  %60 = and i64 %9, 768
  %.not25 = icmp eq i64 %60, 0
  br i1 %.not25, label %62, label %61

61:                                               ; preds = %59
  store ptr null, ptr %.022, align 8, !tbaa !3
  br label %asn1_template_clear.exit

62:                                               ; preds = %59
  %63 = and i64 %9, 6
  %.not26 = icmp eq i64 %63, 0
  br i1 %.not26, label %68, label %64

64:                                               ; preds = %62
  %65 = tail call ptr @OPENSSL_sk_new_null() #4
  %.not27 = icmp eq ptr %65, null
  br i1 %.not27, label %66, label %67

66:                                               ; preds = %64
  tail call void @ERR_new() #4
  tail call void @ERR_set_debug(ptr noundef nonnull @.str, i32 noundef 233, ptr noundef nonnull @__func__.asn1_template_new) #4
  tail call void (i32, i32, ptr, ...) @ERR_set_error(i32 noundef 13, i32 noundef 524303, ptr noundef null) #4
  br label %asn1_template_clear.exit

67:                                               ; preds = %64
  store ptr %65, ptr %.022, align 8, !tbaa !3
  br label %asn1_template_clear.exit

68:                                               ; preds = %62
  %69 = call fastcc i32 @asn1_item_embed_new(ptr noundef %.022, ptr noundef %8, i32 noundef %11, ptr noundef %2, ptr noundef %3)
  br label %asn1_template_clear.exit

asn1_template_clear.exit:                         ; preds = %18, %58, %.critedge19.i.i, %57, %56, %.critedge19.i10.i, %46, %41, %40, %30, %29, %17, %68, %67, %66, %61
  %.0 = phi i32 [ 1, %61 ], [ %69, %68 ], [ 1, %67 ], [ 0, %66 ], [ 1, %17 ], [ 1, %29 ], [ 1, %30 ], [ 1, %40 ], [ 1, %41 ], [ 1, %46 ], [ 1, %.critedge19.i10.i ], [ 1, %56 ], [ 1, %57 ], [ 1, %.critedge19.i.i ], [ 1, %58 ], [ 1, %18 ]
  call void @llvm.lifetime.end.p0(i64 8, ptr nonnull %5) #4
  ret i32 %.0
}